Certificate:
    Data:
        Version: 3 (0x2)
        Serial Number:
            d1:b6:bf:af:06:17:8c:bd
        Signature Algorithm: sha1WithRSAEncryption
        Issuer: C=US, ST=California, O=M2Crypto, CN=Heikki Toivonen
        Validity
            Not Before: Jul 28 04:30:50 2009 GMT
            Not After : Jul 27 04:30:50 2012 GMT
        Subject: C=US, ST=California, O=M2Crypto, CN=Heikki Toivonen
        Subject Public Key Info:
            Public Key Algorithm: rsaEncryption
            RSA Public Key: (1024 bit)
                Modulus (1024 bit):
                    00:c8:9b:59:18:c2:bf:21:68:dc:d4:62:30:1f:43:
                    29:52:85:8d:36:fc:20:7f:11:1b:c6:f3:e6:c2:7a:
                    d0:17:0e:6e:78:43:21:e9:e2:df:9f:31:87:e8:7a:
                    37:88:1f:a4:56:a1:e9:cb:13:7b:1b:c0:28:cf:5a:
                    db:a3:e7:50:6c:c6:55:76:e3:61:e8:73:4b:c2:8c:
                    ee:1c:29:c1:ee:2d:fd:e2:30:34:69:06:ea:d0:af:
                    bd:c5:db:86:70:92:26:0a:33:1b:70:a9:e7:6e:a4:
                    2e:ee:4a:8a:f3:b2:6c:c9:97:28:39:28:28:3f:c5:
                    90:4d:4e:83:0a:0e:cd:98:93
                Exponent: 65537 (0x10001)
        X509v3 extensions:
            X509v3 Subject Key Identifier: 
                AD:64:45:74:8F:83:C7:2C:D5:D7:A0:85:91:10:40:9A:9C:96:CF:EE
            X509v3 Authority Key Identifier: 
                keyid:AD:64:45:74:8F:83:C7:2C:D5:D7:A0:85:91:10:40:9A:9C:96:CF:EE
                DirName:/C=US/ST=California/O=M2Crypto/CN=Heikki Toivonen
                serial:D1:B6:BF:AF:06:17:8C:BD

            X509v3 Basic Constraints: 
                CA:TRUE
    Signature Algorithm: sha1WithRSAEncryption
        c8:11:af:7d:6d:fb:1c:82:0d:c0:e7:41:f4:b2:a5:b0:69:6d:
        18:e3:04:aa:49:e6:4a:69:6d:c3:e3:8b:ab:d1:18:ac:72:ef:
        48:9e:49:c7:57:75:2d:00:1e:08:9f:c3:dc:ca:5f:91:38:0d:
        ac:f8:1f:cc:fc:f7:c2:5b:ce:d7:0c:cf:b2:fe:c9:a9:ce:b8:
        07:45:17:1c:cf:b3:07:f9:1f:69:6a:94:03:be:62:62:9c:af:
        a2:24:25:2d:1f:63:0a:91:6b:bb:e3:6c:ec:20:de:80:d3:04:
        b4:5e:42:1f:27:bc:1f:79:98:18:ba:fb:8a:34:24:a9:40:1e:
        b9:7b
-----BEGIN CERTIFICATE-----
MIICzjCCAjegAwIBAgIJANG2v68GF4y9MA0GCSqGSIb3DQEBBQUAME8xCzAJBgNV
BAYTAlVTMRMwEQYDVQQIEwpDYWxpZm9ybmlhMREwDwYDVQQKEwhNMkNyeXB0bzEY
MBYGA1UEAxMPSGVpa2tpIFRvaXZvbmVuMB4XDTA5MDcyODA0MzA1MFoXDTEyMDcy
NzA0MzA1MFowTzELMAkGA1UEBhMCVVMxEzARBgNVBAgTCkNhbGlmb3JuaWExETAP
BgNVBAoTCE0yQ3J5cHRvMRgwFgYDVQQDEw9IZWlra2kgVG9pdm9uZW4wgZ8wDQYJ
KoZIhvcNAQEBBQADgY0AMIGJAoGBAMibWRjCvyFo3NRiMB9DKVKFjTb8IH8RG8bz
5sJ60BcObnhDIeni358xh+h6N4gfpFah6csTexvAKM9a26PnUGzGVXbjYehzS8KM
7hwpwe4t/eIwNGkG6tCvvcXbhnCSJgozG3Cp526kLu5KivOybMmXKDkoKD/FkE1O
gwoOzZiTAgMBAAGjgbEwga4wHQYDVR0OBBYEFK1kRXSPg8cs1deghZEQQJqcls/u
MH8GA1UdIwR4MHaAFK1kRXSPg8cs1deghZEQQJqcls/uoVOkUTBPMQswCQYDVQQG
EwJVUzETMBEGA1UECBMKQ2FsaWZvcm5pYTERMA8GA1UEChMITTJDcnlwdG8xGDAW
BgNVBAMTD0hlaWtraSBUb2l2b25lboIJANG2v68GF4y9MAwGA1UdEwQFMAMBAf8w
DQYJKoZIhvcNAQEFBQADgYEAyBGvfW37HIINwOdB9LKlsGltGOMEqknmSmltw+OL
q9EYrHLvSJ5Jx1d1LQAeCJ/D3MpfkTgNrPgfzPz3wlvO1wzPsv7Jqc64B0UXHM+z
B/kfaWqUA75iYpyvoiQlLR9jCpFru+Ns7CDegNMEtF5CHye8H3mYGLr7ijQkqUAe
uXs=
-----END CERTIFICATE-----
