Certificate:
    Data:
        Version: 3 (0x2)
        Serial Number:
            d1:b6:bf:af:06:17:8c:c1
        Signature Algorithm: sha1WithRSAEncryption
        Issuer: C=US, ST=California, O=M2Crypto, CN=Heikki Toivonen
        Validity
            Not Before: Jul 28 04:39:19 2009 GMT
            Not After : Jul 26 04:39:19 2019 GMT
        Subject: C=US, ST=California, O=M2Crypto, CN=Recipient/emailAddress=recipient@example.com
        Subject Public Key Info:
            Public Key Algorithm: rsaEncryption
            RSA Public Key: (1024 bit)
                Modulus (1024 bit):
                    00:c2:21:a3:4f:64:59:9c:21:39:21:d2:3c:e7:0a:
                    60:72:c8:39:b3:c3:27:4a:6d:56:8f:a0:5d:1b:c6:
                    e4:3e:26:61:09:a9:ae:04:83:69:3f:9d:2b:12:7e:
                    d4:f7:8e:d0:6e:a9:8c:9b:d1:bf:17:0c:bd:d0:73:
                    99:02:6e:7e:cb:7a:80:2d:cf:b1:29:c0:30:36:3f:
                    68:12:3e:4e:bf:f9:8b:3d:1d:56:af:24:94:ae:d5:
                    59:b4:00:50:0c:c0:2b:59:c3:99:b3:8a:19:f1:86:
                    14:bd:ee:e9:c4:f1:d7:6a:0c:e9:67:8a:94:9a:2d:
                    2d:60:25:22:c6:72:68:c2:0d
                Exponent: 65537 (0x10001)
        X509v3 extensions:
            X509v3 Basic Constraints: 
                CA:FALSE
            Netscape Comment: 
                OpenSSL Generated Certificate
            X509v3 Subject Key Identifier: 
                11:CB:60:AC:55:85:52:84:C5:C8:20:5A:50:13:D0:89:C7:7A:B7:81
            X509v3 Authority Key Identifier: 
                keyid:AD:64:45:74:8F:83:C7:2C:D5:D7:A0:85:91:10:40:9A:9C:96:CF:EE

    Signature Algorithm: sha1WithRSAEncryption
        87:56:17:6d:ba:3b:a6:c4:22:af:20:f1:a0:e5:9d:27:c4:50:
        bd:79:eb:d2:84:e5:9a:00:5f:5d:5a:c3:34:58:77:f5:a9:00:
        f9:76:e9:2d:89:b4:3f:9d:e3:cf:15:0c:64:1b:0a:03:db:e4:
        6f:2b:ff:1c:82:89:1a:0f:7e:83:58:0f:e6:da:af:26:97:49:
        4a:59:d7:61:3f:4b:ed:1d:5b:51:00:3b:83:96:c7:1e:3d:84:
        f4:91:1f:70:69:12:b9:a7:2c:5b:1b:05:cd:74:90:2b:a0:ba:
        e7:70:cd:6b:7d:ac:be:d7:92:50:e9:f5:c0:42:29:04:ef:8f:
        a1:68
-----BEGIN CERTIFICATE-----
MIICtzCCAiCgAwIBAgIJANG2v68GF4zBMA0GCSqGSIb3DQEBBQUAME8xCzAJBgNV
BAYTAlVTMRMwEQYDVQQIEwpDYWxpZm9ybmlhMREwDwYDVQQKEwhNMkNyeXB0bzEY
MBYGA1UEAxMPSGVpa2tpIFRvaXZvbmVuMB4XDTA5MDcyODA0MzkxOVoXDTE5MDcy
NjA0MzkxOVowbzELMAkGA1UEBhMCVVMxEzARBgNVBAgTCkNhbGlmb3JuaWExETAP
BgNVBAoTCE0yQ3J5cHRvMRIwEAYDVQQDEwlSZWNpcGllbnQxJDAiBgkqhkiG9w0B
CQEWFXJlY2lwaWVudEBleGFtcGxlLmNvbTCBnzANBgkqhkiG9w0BAQEFAAOBjQAw
gYkCgYEAwiGjT2RZnCE5IdI85wpgcsg5s8MnSm1Wj6BdG8bkPiZhCamuBINpP50r
En7U947QbqmMm9G/Fwy90HOZAm5+y3qALc+xKcAwNj9oEj5Ov/mLPR1WrySUrtVZ
tABQDMArWcOZs4oZ8YYUve7pxPHXagzpZ4qUmi0tYCUixnJowg0CAwEAAaN7MHkw
CQYDVR0TBAIwADAsBglghkgBhvhCAQ0EHxYdT3BlblNTTCBHZW5lcmF0ZWQgQ2Vy
dGlmaWNhdGUwHQYDVR0OBBYEFBHLYKxVhVKExcggWlAT0InHereBMB8GA1UdIwQY
MBaAFK1kRXSPg8cs1deghZEQQJqcls/uMA0GCSqGSIb3DQEBBQUAA4GBAIdWF226
O6bEIq8g8aDlnSfEUL1569KE5ZoAX11awzRYd/WpAPl26S2JtD+d488VDGQbCgPb
5G8r/xyCiRoPfoNYD+baryaXSUpZ12E/S+0dW1EAO4OWxx49hPSRH3BpErmnLFsb
Bc10kCuguudwzWt9rL7XklDp9cBCKQTvj6Fo
-----END CERTIFICATE-----
