Certificate:
    Data:
        Version: 3 (0x2)
        Serial Number:
            d1:b6:bf:af:06:17:8c:c0
        Signature Algorithm: sha1WithRSAEncryption
        Issuer: C=US, ST=California, O=M2Crypto, CN=Heikki Toivonen
        Validity
            Not Before: Jul 28 04:37:25 2009 GMT
            Not After : Jul 26 04:37:25 2019 GMT
        Subject: C=US, ST=California, O=M2Crypto, CN=Signer/emailAddress=signer@example.com
        Subject Public Key Info:
            Public Key Algorithm: rsaEncryption
            RSA Public Key: (1024 bit)
                Modulus (1024 bit):
                    00:c3:9c:76:f3:21:aa:10:19:9f:77:e3:82:1d:9d:
                    c3:4a:da:bc:c3:83:71:d1:89:78:8b:82:a4:b9:c5:
                    70:bb:e3:00:bf:49:b8:99:96:67:0b:bf:fe:72:cb:
                    d9:b6:63:85:f4:fb:86:55:32:22:1e:6e:ce:fd:88:
                    5c:75:9d:77:3c:92:17:c5:b2:70:04:59:02:33:ef:
                    be:33:26:f1:e4:72:41:45:72:f1:bf:c4:21:b1:fe:
                    de:92:b9:f3:25:3e:1a:15:4b:26:47:29:cc:38:7f:
                    58:3b:ae:b7:c5:69:e7:48:81:b6:55:61:45:c3:3f:
                    b6:9d:06:e5:17:41:f6:f2:e9
                Exponent: 65537 (0x10001)
        X509v3 extensions:
            X509v3 Basic Constraints: 
                CA:FALSE
            Netscape Comment: 
                OpenSSL Generated Certificate
            X509v3 Subject Key Identifier: 
                22:CA:29:B7:D7:39:B4:BF:35:F9:36:5E:EE:2B:E4:17:4E:F9:6E:EE
            X509v3 Authority Key Identifier: 
                keyid:AD:64:45:74:8F:83:C7:2C:D5:D7:A0:85:91:10:40:9A:9C:96:CF:EE

    Signature Algorithm: sha1WithRSAEncryption
        5f:a0:da:6b:37:b4:bb:25:34:a7:ed:f3:f7:2e:f2:85:aa:91:
        01:8f:c3:80:e5:44:87:df:9e:64:5e:5f:3e:5c:7f:c1:07:12:
        2a:46:cc:bb:9f:a4:a5:c8:3f:84:9a:a4:9e:d5:26:33:af:b4:
        5f:eb:8e:7d:81:65:f6:44:18:78:89:17:74:fb:07:dc:04:65:
        fa:15:0c:b2:f3:e7:e7:af:1f:d9:02:c4:c4:44:b7:95:91:47:
        fe:c0:2a:e1:7a:ae:dd:5f:f8:a9:fa:bb:dd:89:2d:0b:05:b6:
        ce:ba:12:37:7f:97:4c:48:a9:fb:d4:b7:a5:d1:61:f6:85:ea:
        30:8c
-----BEGIN CERTIFICATE-----
MIICsTCCAhqgAwIBAgIJANG2v68GF4zAMA0GCSqGSIb3DQEBBQUAME8xCzAJBgNV
BAYTAlVTMRMwEQYDVQQIEwpDYWxpZm9ybmlhMREwDwYDVQQKEwhNMkNyeXB0bzEY
MBYGA1UEAxMPSGVpa2tpIFRvaXZvbmVuMB4XDTA5MDcyODA0MzcyNVoXDTE5MDcy
NjA0MzcyNVowaTELMAkGA1UEBhMCVVMxEzARBgNVBAgTCkNhbGlmb3JuaWExETAP
BgNVBAoTCE0yQ3J5cHRvMQ8wDQYDVQQDEwZTaWduZXIxITAfBgkqhkiG9w0BCQEW
EnNpZ25lckBleGFtcGxlLmNvbTCBnzANBgkqhkiG9w0BAQEFAAOBjQAwgYkCgYEA
w5x28yGqEBmfd+OCHZ3DStq8w4Nx0Yl4i4KkucVwu+MAv0m4mZZnC7/+csvZtmOF
9PuGVTIiHm7O/YhcdZ13PJIXxbJwBFkCM+++Mybx5HJBRXLxv8Qhsf7ekrnzJT4a
FUsmRynMOH9YO663xWnnSIG2VWFFwz+2nQblF0H28ukCAwEAAaN7MHkwCQYDVR0T
BAIwADAsBglghkgBhvhCAQ0EHxYdT3BlblNTTCBHZW5lcmF0ZWQgQ2VydGlmaWNh
dGUwHQYDVR0OBBYEFCLKKbfXObS/Nfk2Xu4r5BdO+W7uMB8GA1UdIwQYMBaAFK1k
RXSPg8cs1deghZEQQJqcls/uMA0GCSqGSIb3DQEBBQUAA4GBAF+g2ms3tLslNKft
8/cu8oWqkQGPw4DlRIffnmReXz5cf8EHEipGzLufpKXIP4SapJ7VJjOvtF/rjn2B
ZfZEGHiJF3T7B9wEZfoVDLLz5+evH9kCxMREt5WRR/7AKuF6rt1f+Kn6u92JLQsF
ts66Ejd/l0xIqfvUt6XRYfaF6jCM
-----END CERTIFICATE-----
