Certificate:
    Data:
        Version: 3 (0x2)
        Serial Number:
            d1:b6:bf:af:06:17:8c:bf
        Signature Algorithm: sha1WithRSAEncryption
        Issuer: C=US, ST=California, O=M2Crypto, CN=Heikki Toivonen
        Validity
            Not Before: Jul 28 04:34:34 2009 GMT
            Not After : Jul 26 04:34:34 2019 GMT
        Subject: C=US, ST=California, O=M2Crypto, CN=X509
        Subject Public Key Info:
            Public Key Algorithm: rsaEncryption
            RSA Public Key: (1024 bit)
                Modulus (1024 bit):
                    00:d3:62:55:12:30:b8:dc:84:7c:63:bd:80:1d:19:
                    1a:72:f2:28:f8:59:0b:2a:6b:f2:2a:23:9d:bb:0f:
                    7f:92:5e:dd:27:74:bc:78:0a:27:ab:1c:2e:23:1c:
                    26:77:48:b6:8f:03:ef:57:1c:a0:54:ae:1a:e8:f5:
                    24:a1:46:a1:27:48:55:33:98:fc:db:6a:83:2e:89:
                    3f:e0:f3:91:9d:da:4f:db:74:90:9d:a6:8d:4a:46:
                    cb:9f:ba:b8:60:df:ae:ee:22:4b:3f:80:55:f7:1d:
                    89:3c:2b:28:df:46:19:d5:18:ac:e9:07:4e:40:81:
                    75:bc:da:5b:d5:e1:c2:04:15
                Exponent: 65537 (0x10001)
        X509v3 extensions:
            X509v3 Basic Constraints: 
                CA:FALSE
            Netscape Comment: 
                OpenSSL Generated Certificate
            X509v3 Subject Key Identifier: 
                B1:C4:6F:98:6F:E8:3B:8C:A1:26:11:81:97:9A:12:50:4A:1A:6C:88
            X509v3 Authority Key Identifier: 
                keyid:AD:64:45:74:8F:83:C7:2C:D5:D7:A0:85:91:10:40:9A:9C:96:CF:EE

    Signature Algorithm: sha1WithRSAEncryption
        3f:0b:44:bc:d2:da:5f:a9:39:be:08:53:e6:fd:10:ff:d6:f0:
        a3:51:f6:be:03:20:cc:b3:52:cf:0f:7c:3f:56:42:6f:9d:72:
        9b:09:a5:64:3f:43:29:24:2b:d6:79:94:54:2f:99:e8:ce:fe:
        fd:de:bb:ca:43:28:16:ff:32:ac:3d:c5:56:db:87:23:3c:d4:
        69:f7:4e:1b:c4:be:c9:d8:27:99:2a:64:be:3a:6b:7e:51:85:
        db:75:35:40:a5:6c:ae:53:c3:09:e7:00:35:17:64:1a:17:71:
        c5:d5:59:e5:8f:fc:96:4a:f9:81:33:23:4c:c1:60:71:93:18:
        0a:c4
-----BEGIN CERTIFICATE-----
MIICjDCCAfWgAwIBAgIJANG2v68GF4y/MA0GCSqGSIb3DQEBBQUAME8xCzAJBgNV
BAYTAlVTMRMwEQYDVQQIEwpDYWxpZm9ybmlhMREwDwYDVQQKEwhNMkNyeXB0bzEY
MBYGA1UEAxMPSGVpa2tpIFRvaXZvbmVuMB4XDTA5MDcyODA0MzQzNFoXDTE5MDcy
NjA0MzQzNFowRDELMAkGA1UEBhMCVVMxEzARBgNVBAgTCkNhbGlmb3JuaWExETAP
BgNVBAoTCE0yQ3J5cHRvMQ0wCwYDVQQDEwRYNTA5MIGfMA0GCSqGSIb3DQEBAQUA
A4GNADCBiQKBgQDTYlUSMLjchHxjvYAdGRpy8ij4WQsqa/IqI527D3+SXt0ndLx4
CierHC4jHCZ3SLaPA+9XHKBUrhro9SShRqEnSFUzmPzbaoMuiT/g85Gd2k/bdJCd
po1KRsufurhg367uIks/gFX3HYk8KyjfRhnVGKzpB05AgXW82lvV4cIEFQIDAQAB
o3sweTAJBgNVHRMEAjAAMCwGCWCGSAGG+EIBDQQfFh1PcGVuU1NMIEdlbmVyYXRl
ZCBDZXJ0aWZpY2F0ZTAdBgNVHQ4EFgQUscRvmG/oO4yhJhGBl5oSUEoabIgwHwYD
VR0jBBgwFoAUrWRFdI+DxyzV16CFkRBAmpyWz+4wDQYJKoZIhvcNAQEFBQADgYEA
PwtEvNLaX6k5vghT5v0Q/9bwo1H2vgMgzLNSzw98P1ZCb51ymwmlZD9DKSQr1nmU
VC+Z6M7+/d67ykMoFv8yrD3FVtuHIzzUafdOG8S+ydgnmSpkvjprflGF23U1QKVs
rlPDCecANRdkGhdxxdVZ5Y/8lkr5gTMjTMFgcZMYCsQ=
-----END CERTIFICATE-----
-----BEGIN RSA PRIVATE KEY-----
MIICXQIBAAKBgQDTYlUSMLjchHxjvYAdGRpy8ij4WQsqa/IqI527D3+SXt0ndLx4
CierHC4jHCZ3SLaPA+9XHKBUrhro9SShRqEnSFUzmPzbaoMuiT/g85Gd2k/bdJCd
po1KRsufurhg367uIks/gFX3HYk8KyjfRhnVGKzpB05AgXW82lvV4cIEFQIDAQAB
AoGATPipcY48QlAb21XNqMrTTrfPI1+JKVFVRPLjJJJoKaxRa2SenDdWaoBAbJh7
iUP49erA5D+QQkWDlwBs7i0B0NqSkZAUVTfzRjGackTNJUQ+smfeqRLMH+Oru6DS
VFbb818nJOJKqMMhMz8SrPrrbg+qiHlJ3JUQnNzTYohOMAECQQDvTJBSSit34ZBO
ABj4vWYucCnOygcpICQnIsG97sZmF8tuF55tA5e+0v9R7BPuyAjrQnKJqDj3r/AY
AxhgngGVAkEA4iMGoHzoSQvh+gT0A2rPCtVo+URNswIEZhQmMuA0VjrFCphWkZE+
3jgDsJTNQUJs4mczQMcBzL34Nh1cJThYgQJARMMrdXn6o6gdX0yH4HIMOqvgV5uW
Eys5OEW0hm9mc0/DFQ+UZp7xq9PVqiS8VZEFfxTI9OVx+TqFM2EwUBMXQQJBAIge
n0mRhl0Z6v+NZbh83X3e8h5BUCf1ieJMNKYhMT/KhnsXMdzTui0XOJldKKQksNgj
WMWgROQSYctpJuM8pIECQQCNN27XVHs4YAQ6GvBkrHsK5w6LZkm6UaJgbCqDqyeS
eqfPp9VRurZ/FhK1mPbgNN67U4Ik1nwjR0o8wD4mreIj
-----END RSA PRIVATE KEY-----
